target datalayout = "e-m:e-p270:32:32-p271:32:32-p272:64:64-i64:64-i128:128-f80:128-n8:16:32:64-S128"
target triple = "x86_64-unknown-linux-gnu"

%class.b2Shape = type { ptr, i32, float }
%class.b2PolygonShape = type <{ %class.b2Shape, %struct.b2Vec2, [8 x %struct.b2Vec2], [8 x %struct.b2Vec2], i32, [4 x i8] }>
%struct.b2Vec2 = type { float, float }
%struct.b2MassData = type { float, %struct.b2Vec2, float }

; Function Attrs: mustprogress nounwind uwtable
define linkonce_odr hidden noundef float @_Z5b2DotRK6b2Vec2S1_(ptr noundef nonnull align 4 dereferenceable(8) %a, ptr noundef nonnull align 4 dereferenceable(8) %b) #1 comdat {
entry:
  %a.addr = alloca ptr, align 8
  %b.addr = alloca ptr, align 8
  store ptr %a, ptr %a.addr, align 8
  store ptr %b, ptr %b.addr, align 8
  %0 = load ptr, ptr %a.addr, align 8
  %x = getelementptr inbounds %struct.b2Vec2, ptr %0, i32 0, i32 0
  %1 = load float, ptr %x, align 4
  %2 = load ptr, ptr %b.addr, align 8
  %x1 = getelementptr inbounds %struct.b2Vec2, ptr %2, i32 0, i32 0
  %3 = load float, ptr %x1, align 4
  %4 = load ptr, ptr %a.addr, align 8
  %y = getelementptr inbounds %struct.b2Vec2, ptr %4, i32 0, i32 1
  %5 = load float, ptr %y, align 4
  %6 = load ptr, ptr %b.addr, align 8
  %y2 = getelementptr inbounds %struct.b2Vec2, ptr %6, i32 0, i32 1
  %7 = load float, ptr %y2, align 4
  %mul3 = fmul float %5, %7
  %8 = call float @llvm.fmuladd.f32(float %1, float %3, float %mul3)
  ret float %8
}

; Function Attrs: mustprogress nounwind uwtable
define linkonce_odr hidden void @_ZN6b2Vec2mLEf(ptr noundef nonnull align 4 dereferenceable(8) %this, float noundef %a) #1 comdat align 2 {
entry:
  %this.addr = alloca ptr, align 8
  %a.addr = alloca float, align 4
  store ptr %this, ptr %this.addr, align 8
  store float %a, ptr %a.addr, align 4
  %this1 = load ptr, ptr %this.addr, align 8
  %0 = load float, ptr %a.addr, align 4
  %x = getelementptr inbounds %struct.b2Vec2, ptr %this1, i32 0, i32 0
  %1 = load float, ptr %x, align 4
  %mul = fmul float %1, %0
  store float %mul, ptr %x, align 4
  %2 = load float, ptr %a.addr, align 4
  %y = getelementptr inbounds %struct.b2Vec2, ptr %this1, i32 0, i32 1
  %3 = load float, ptr %y, align 4
  %mul2 = fmul float %3, %2
  store float %mul2, ptr %y, align 4
  ret void
}

; Function Attrs: mustprogress nounwind uwtable
define linkonce_odr hidden void @_ZN6b2Vec2pLERKS_(ptr noundef nonnull align 4 dereferenceable(8) %this, ptr noundef nonnull align 4 dereferenceable(8) %v) #1 comdat align 2 {
entry:
  %this.addr = alloca ptr, align 8
  %v.addr = alloca ptr, align 8
  store ptr %this, ptr %this.addr, align 8
  store ptr %v, ptr %v.addr, align 8
  %this1 = load ptr, ptr %this.addr, align 8
  %0 = load ptr, ptr %v.addr, align 8
  %x = getelementptr inbounds %struct.b2Vec2, ptr %0, i32 0, i32 0
  %1 = load float, ptr %x, align 4
  %x2 = getelementptr inbounds %struct.b2Vec2, ptr %this1, i32 0, i32 0
  %2 = load float, ptr %x2, align 4
  %add = fadd float %2, %1
  store float %add, ptr %x2, align 4
  %3 = load ptr, ptr %v.addr, align 8
  %y = getelementptr inbounds %struct.b2Vec2, ptr %3, i32 0, i32 1
  %4 = load float, ptr %y, align 4
  %y3 = getelementptr inbounds %struct.b2Vec2, ptr %this1, i32 0, i32 1
  %5 = load float, ptr %y3, align 4
  %add4 = fadd float %5, %4
  store float %add4, ptr %y3, align 4
  ret void
}

; Function Attrs: mustprogress uwtable
define linkonce_odr hidden <2 x float> @_ZmlfRK6b2Vec2(float noundef %s, ptr noundef nonnull align 4 dereferenceable(8) %a) #3 comdat {
entry:
  %retval = alloca %struct.b2Vec2, align 4
  %s.addr = alloca float, align 4
  %a.addr = alloca ptr, align 8
  store float %s, ptr %s.addr, align 4
  store ptr %a, ptr %a.addr, align 8
  %0 = load float, ptr %s.addr, align 4
  %1 = load ptr, ptr %a.addr, align 8
  %x = getelementptr inbounds %struct.b2Vec2, ptr %1, i32 0, i32 0
  %2 = load float, ptr %x, align 4
  %mul = fmul float %0, %2
  %3 = load float, ptr %s.addr, align 4
  %4 = load ptr, ptr %a.addr, align 8
  %y = getelementptr inbounds %struct.b2Vec2, ptr %4, i32 0, i32 1
  %5 = load float, ptr %y, align 4
  %mul1 = fmul float %3, %5
  call void @_ZN6b2Vec2C2Eff(ptr noundef nonnull align 4 dereferenceable(8) %retval, float noundef %mul, float noundef %mul1)
  %6 = load <2 x float>, ptr %retval, align 4
  ret <2 x float> %6
}

; Function Attrs: mustprogress uwtable
define linkonce_odr hidden <2 x float> @_ZplRK6b2Vec2S1_(ptr noundef nonnull align 4 dereferenceable(8) %a, ptr noundef nonnull align 4 dereferenceable(8) %b) #3 comdat {
entry:
  %retval = alloca %struct.b2Vec2, align 4
  %a.addr = alloca ptr, align 8
  %b.addr = alloca ptr, align 8
  store ptr %a, ptr %a.addr, align 8
  store ptr %b, ptr %b.addr, align 8
  %0 = load ptr, ptr %a.addr, align 8
  %x = getelementptr inbounds %struct.b2Vec2, ptr %0, i32 0, i32 0
  %1 = load float, ptr %x, align 4
  %2 = load ptr, ptr %b.addr, align 8
  %x1 = getelementptr inbounds %struct.b2Vec2, ptr %2, i32 0, i32 0
  %3 = load float, ptr %x1, align 4
  %add = fadd float %1, %3
  %4 = load ptr, ptr %a.addr, align 8
  %y = getelementptr inbounds %struct.b2Vec2, ptr %4, i32 0, i32 1
  %5 = load float, ptr %y, align 4
  %6 = load ptr, ptr %b.addr, align 8
  %y2 = getelementptr inbounds %struct.b2Vec2, ptr %6, i32 0, i32 1
  %7 = load float, ptr %y2, align 4
  %add3 = fadd float %5, %7
  call void @_ZN6b2Vec2C2Eff(ptr noundef nonnull align 4 dereferenceable(8) %retval, float noundef %add, float noundef %add3)
  %8 = load <2 x float>, ptr %retval, align 4
  ret <2 x float> %8
}

; Function Attrs: mustprogress nounwind uwtable
define linkonce_odr hidden noundef float @_Z7b2CrossRK6b2Vec2S1_(ptr noundef nonnull align 4 dereferenceable(8) %a, ptr noundef nonnull align 4 dereferenceable(8) %b) #1 comdat {
entry:
  %a.addr = alloca ptr, align 8
  %b.addr = alloca ptr, align 8
  store ptr %a, ptr %a.addr, align 8
  store ptr %b, ptr %b.addr, align 8
  %0 = load ptr, ptr %a.addr, align 8
  %x = getelementptr inbounds %struct.b2Vec2, ptr %0, i32 0, i32 0
  %1 = load float, ptr %x, align 4
  %2 = load ptr, ptr %b.addr, align 8
  %y = getelementptr inbounds %struct.b2Vec2, ptr %2, i32 0, i32 1
  %3 = load float, ptr %y, align 4
  %4 = load ptr, ptr %a.addr, align 8
  %y1 = getelementptr inbounds %struct.b2Vec2, ptr %4, i32 0, i32 1
  %5 = load float, ptr %y1, align 4
  %6 = load ptr, ptr %b.addr, align 8
  %x2 = getelementptr inbounds %struct.b2Vec2, ptr %6, i32 0, i32 0
  %7 = load float, ptr %x2, align 4
  %mul3 = fmul float %5, %7
  %neg = fneg float %mul3
  %8 = call float @llvm.fmuladd.f32(float %1, float %3, float %neg)
  ret float %8
}

; Function Attrs: mustprogress uwtable
define linkonce_odr hidden <2 x float> @_ZmiRK6b2Vec2S1_(ptr noundef nonnull align 4 dereferenceable(8) %a, ptr noundef nonnull align 4 dereferenceable(8) %b) #3 comdat {
entry:
  %retval = alloca %struct.b2Vec2, align 4
  %a.addr = alloca ptr, align 8
  %b.addr = alloca ptr, align 8
  store ptr %a, ptr %a.addr, align 8
  store ptr %b, ptr %b.addr, align 8
  %0 = load ptr, ptr %a.addr, align 8
  %x = getelementptr inbounds %struct.b2Vec2, ptr %0, i32 0, i32 0
  %1 = load float, ptr %x, align 4
  %2 = load ptr, ptr %b.addr, align 8
  %x1 = getelementptr inbounds %struct.b2Vec2, ptr %2, i32 0, i32 0
  %3 = load float, ptr %x1, align 4
  %sub = fsub float %1, %3
  %4 = load ptr, ptr %a.addr, align 8
  %y = getelementptr inbounds %struct.b2Vec2, ptr %4, i32 0, i32 1
  %5 = load float, ptr %y, align 4
  %6 = load ptr, ptr %b.addr, align 8
  %y2 = getelementptr inbounds %struct.b2Vec2, ptr %6, i32 0, i32 1
  %7 = load float, ptr %y2, align 4
  %sub3 = fsub float %5, %7
  call void @_ZN6b2Vec2C2Eff(ptr noundef nonnull align 4 dereferenceable(8) %retval, float noundef %sub, float noundef %sub3)
  %8 = load <2 x float>, ptr %retval, align 4
  ret <2 x float> %8
}

; Function Attrs: mustprogress nounwind uwtable
define linkonce_odr hidden void @_ZN6b2Vec2C2Eff(ptr noundef nonnull align 4 dereferenceable(8) %this, float noundef %xIn, float noundef %yIn) unnamed_addr #1 comdat align 2 {
entry:
  %this.addr = alloca ptr, align 8
  %xIn.addr = alloca float, align 4
  %yIn.addr = alloca float, align 4
  store ptr %this, ptr %this.addr, align 8
  store float %xIn, ptr %xIn.addr, align 4
  store float %yIn, ptr %yIn.addr, align 4
  %this1 = load ptr, ptr %this.addr, align 8
  %x = getelementptr inbounds %struct.b2Vec2, ptr %this1, i32 0, i32 0
  %0 = load float, ptr %xIn.addr, align 4
  store float %0, ptr %x, align 4
  %y = getelementptr inbounds %struct.b2Vec2, ptr %this1, i32 0, i32 1
  %1 = load float, ptr %yIn.addr, align 4
  store float %1, ptr %y, align 4
  ret void
}

; Function Attrs: mustprogress uwtable
define void @_ZNK14b2PolygonShape11ComputeMassEP10b2MassDataf(ptr noundef nonnull align 8 dereferenceable(156) %this, ptr noundef %massData, float noundef %density) unnamed_addr #3 align 2 {
entry:
  %this.addr = alloca ptr, align 8
  %massData.addr = alloca ptr, align 8
  %density.addr = alloca float, align 4
  %center = alloca %struct.b2Vec2, align 4
  %area = alloca float, align 4
  %I = alloca float, align 4
  %s = alloca %struct.b2Vec2, align 4
  %k_inv3 = alloca float, align 4
  %i = alloca i32, align 4
  %e1 = alloca %struct.b2Vec2, align 4
  %e2 = alloca %struct.b2Vec2, align 4
  %D = alloca float, align 4
  %triangleArea = alloca float, align 4
  %ref.tmp = alloca %struct.b2Vec2, align 4
  %ref.tmp17 = alloca %struct.b2Vec2, align 4
  %ex1 = alloca float, align 4
  %ey1 = alloca float, align 4
  %ex2 = alloca float, align 4
  %ey2 = alloca float, align 4
  %intx2 = alloca float, align 4
  %inty2 = alloca float, align 4
  %ref.tmp32 = alloca %struct.b2Vec2, align 4
  store ptr %this, ptr %this.addr, align 8
  store ptr %massData, ptr %massData.addr, align 8
  store float %density, ptr %density.addr, align 4
  %this1 = load ptr, ptr %this.addr, align 8
  call void @_ZN6b2Vec2C2Eff(ptr noundef nonnull align 4 dereferenceable(8) %center, float noundef 0.000000e+00, float noundef 0.000000e+00)
  store float 0.000000e+00, ptr %area, align 4
  store float 0.000000e+00, ptr %I, align 4
  %m_vertices = getelementptr inbounds %class.b2PolygonShape, ptr %this1, i32 0, i32 2
  %arrayidx = getelementptr inbounds [8 x %struct.b2Vec2], ptr %m_vertices, i64 0, i64 0
  call void @llvm.memcpy.p0.p0.i64(ptr align 4 %s, ptr align 8 %arrayidx, i64 8, i1 false)
  store float 0x3FD5555560000000, ptr %k_inv3, align 4
  store i32 0, ptr %i, align 4
  br label %for.cond

for.cond:                                         ; preds = %for.inc, %entry
  %0 = load i32, ptr %i, align 4
  %m_count = getelementptr inbounds %class.b2PolygonShape, ptr %this1, i32 0, i32 4
  %1 = load i32, ptr %m_count, align 8
  %cmp = icmp slt i32 %0, %1
  br i1 %cmp, label %for.body, label %for.end

for.body:                                         ; preds = %for.cond
  %m_vertices2 = getelementptr inbounds %class.b2PolygonShape, ptr %this1, i32 0, i32 2
  %2 = load i32, ptr %i, align 4
  %idxprom = sext i32 %2 to i64
  %arrayidx3 = getelementptr inbounds [8 x %struct.b2Vec2], ptr %m_vertices2, i64 0, i64 %idxprom
  %call = call <2 x float> @_ZmiRK6b2Vec2S1_(ptr noundef nonnull align 4 dereferenceable(8) %arrayidx3, ptr noundef nonnull align 4 dereferenceable(8) %s)
  store <2 x float> %call, ptr %e1, align 4
  %3 = load i32, ptr %i, align 4
  %add = add nsw i32 %3, 1
  %m_count4 = getelementptr inbounds %class.b2PolygonShape, ptr %this1, i32 0, i32 4
  %4 = load i32, ptr %m_count4, align 8
  %cmp5 = icmp slt i32 %add, %4
  br i1 %cmp5, label %cond.true, label %cond.false

cond.true:                                        ; preds = %for.body
  %m_vertices6 = getelementptr inbounds %class.b2PolygonShape, ptr %this1, i32 0, i32 2
  %5 = load i32, ptr %i, align 4
  %add7 = add nsw i32 %5, 1
  %idxprom8 = sext i32 %add7 to i64
  %arrayidx9 = getelementptr inbounds [8 x %struct.b2Vec2], ptr %m_vertices6, i64 0, i64 %idxprom8
  %call10 = call <2 x float> @_ZmiRK6b2Vec2S1_(ptr noundef nonnull align 4 dereferenceable(8) %arrayidx9, ptr noundef nonnull align 4 dereferenceable(8) %s)
  store <2 x float> %call10, ptr %e2, align 4
  br label %cond.end

cond.false:                                       ; preds = %for.body
  %m_vertices11 = getelementptr inbounds %class.b2PolygonShape, ptr %this1, i32 0, i32 2
  %arrayidx12 = getelementptr inbounds [8 x %struct.b2Vec2], ptr %m_vertices11, i64 0, i64 0
  %call13 = call <2 x float> @_ZmiRK6b2Vec2S1_(ptr noundef nonnull align 4 dereferenceable(8) %arrayidx12, ptr noundef nonnull align 4 dereferenceable(8) %s)
  store <2 x float> %call13, ptr %e2, align 4
  br label %cond.end

cond.end:                                         ; preds = %cond.false, %cond.true
  %call14 = call noundef float @_Z7b2CrossRK6b2Vec2S1_(ptr noundef nonnull align 4 dereferenceable(8) %e1, ptr noundef nonnull align 4 dereferenceable(8) %e2)
  store float %call14, ptr %D, align 4
  %6 = load float, ptr %D, align 4
  %mul = fmul float 5.000000e-01, %6
  store float %mul, ptr %triangleArea, align 4
  %7 = load float, ptr %triangleArea, align 4
  %8 = load float, ptr %area, align 4
  %add15 = fadd float %8, %7
  store float %add15, ptr %area, align 4
  %9 = load float, ptr %triangleArea, align 4
  %mul16 = fmul float %9, 0x3FD5555560000000
  %call18 = call <2 x float> @_ZplRK6b2Vec2S1_(ptr noundef nonnull align 4 dereferenceable(8) %e1, ptr noundef nonnull align 4 dereferenceable(8) %e2)
  store <2 x float> %call18, ptr %ref.tmp17, align 4
  %call19 = call <2 x float> @_ZmlfRK6b2Vec2(float noundef %mul16, ptr noundef nonnull align 4 dereferenceable(8) %ref.tmp17)
  store <2 x float> %call19, ptr %ref.tmp, align 4
  call void @_ZN6b2Vec2pLERKS_(ptr noundef nonnull align 4 dereferenceable(8) %center, ptr noundef nonnull align 4 dereferenceable(8) %ref.tmp)
  %x = getelementptr inbounds %struct.b2Vec2, ptr %e1, i32 0, i32 0
  %10 = load float, ptr %x, align 4
  store float %10, ptr %ex1, align 4
  %y = getelementptr inbounds %struct.b2Vec2, ptr %e1, i32 0, i32 1
  %11 = load float, ptr %y, align 4
  store float %11, ptr %ey1, align 4
  %x20 = getelementptr inbounds %struct.b2Vec2, ptr %e2, i32 0, i32 0
  %12 = load float, ptr %x20, align 4
  store float %12, ptr %ex2, align 4
  %y21 = getelementptr inbounds %struct.b2Vec2, ptr %e2, i32 0, i32 1
  %13 = load float, ptr %y21, align 4
  store float %13, ptr %ey2, align 4
  %14 = load float, ptr %ex1, align 4
  %15 = load float, ptr %ex1, align 4
  %16 = load float, ptr %ex2, align 4
  %17 = load float, ptr %ex1, align 4
  %mul23 = fmul float %16, %17
  %18 = call float @llvm.fmuladd.f32(float %14, float %15, float %mul23)
  %19 = load float, ptr %ex2, align 4
  %20 = load float, ptr %ex2, align 4
  %21 = call float @llvm.fmuladd.f32(float %19, float %20, float %18)
  store float %21, ptr %intx2, align 4
  %22 = load float, ptr %ey1, align 4
  %23 = load float, ptr %ey1, align 4
  %24 = load float, ptr %ey2, align 4
  %25 = load float, ptr %ey1, align 4
  %mul26 = fmul float %24, %25
  %26 = call float @llvm.fmuladd.f32(float %22, float %23, float %mul26)
  %27 = load float, ptr %ey2, align 4
  %28 = load float, ptr %ey2, align 4
  %29 = call float @llvm.fmuladd.f32(float %27, float %28, float %26)
  store float %29, ptr %inty2, align 4
  %30 = load float, ptr %D, align 4
  %mul28 = fmul float 0x3FB5555560000000, %30
  %31 = load float, ptr %intx2, align 4
  %32 = load float, ptr %inty2, align 4
  %add29 = fadd float %31, %32
  %33 = load float, ptr %I, align 4
  %34 = call float @llvm.fmuladd.f32(float %mul28, float %add29, float %33)
  store float %34, ptr %I, align 4
  br label %for.inc

for.inc:                                          ; preds = %cond.end
  %35 = load i32, ptr %i, align 4
  %inc = add nsw i32 %35, 1
  store i32 %inc, ptr %i, align 4
  br label %for.cond, !llvm.loop !12

for.end:                                          ; preds = %for.cond
  %36 = load float, ptr %density.addr, align 4
  %37 = load float, ptr %area, align 4
  %mul31 = fmul float %36, %37
  %38 = load ptr, ptr %massData.addr, align 8
  %mass = getelementptr inbounds %struct.b2MassData, ptr %38, i32 0, i32 0
  store float %mul31, ptr %mass, align 4
  %39 = load float, ptr %area, align 4
  %div = fdiv float 1.000000e+00, %39
  call void @_ZN6b2Vec2mLEf(ptr noundef nonnull align 4 dereferenceable(8) %center, float noundef %div)
  %call33 = call <2 x float> @_ZplRK6b2Vec2S1_(ptr noundef nonnull align 4 dereferenceable(8) %center, ptr noundef nonnull align 4 dereferenceable(8) %s)
  store <2 x float> %call33, ptr %ref.tmp32, align 4
  %40 = load ptr, ptr %massData.addr, align 8
  %center34 = getelementptr inbounds %struct.b2MassData, ptr %40, i32 0, i32 1
  call void @llvm.memcpy.p0.p0.i64(ptr align 4 %center34, ptr align 4 %ref.tmp32, i64 8, i1 false)
  %41 = load float, ptr %density.addr, align 4
  %42 = load float, ptr %I, align 4
  %mul35 = fmul float %41, %42
  %43 = load ptr, ptr %massData.addr, align 8
  %I36 = getelementptr inbounds %struct.b2MassData, ptr %43, i32 0, i32 2
  store float %mul35, ptr %I36, align 4
  %44 = load ptr, ptr %massData.addr, align 8
  %mass37 = getelementptr inbounds %struct.b2MassData, ptr %44, i32 0, i32 0
  %45 = load float, ptr %mass37, align 4
  %46 = load ptr, ptr %massData.addr, align 8
  %center38 = getelementptr inbounds %struct.b2MassData, ptr %46, i32 0, i32 1
  %47 = load ptr, ptr %massData.addr, align 8
  %center39 = getelementptr inbounds %struct.b2MassData, ptr %47, i32 0, i32 1
  %call40 = call noundef float @_Z5b2DotRK6b2Vec2S1_(ptr noundef nonnull align 4 dereferenceable(8) %center38, ptr noundef nonnull align 4 dereferenceable(8) %center39)
  %call41 = call noundef float @_Z5b2DotRK6b2Vec2S1_(ptr noundef nonnull align 4 dereferenceable(8) %center, ptr noundef nonnull align 4 dereferenceable(8) %center)
  %sub = fsub float %call40, %call41
  %48 = load ptr, ptr %massData.addr, align 8
  %I43 = getelementptr inbounds %struct.b2MassData, ptr %48, i32 0, i32 2
  %49 = load float, ptr %I43, align 4
  %50 = call float @llvm.fmuladd.f32(float %45, float %sub, float %49)
  store float %50, ptr %I43, align 4
  ret void
}